; Function Attrs: nounwind uwtable
define hidden i32 @X509_NAME_cmp(ptr noundef %0, ptr noundef %1) local_unnamed_addr #0 {
  %3 = getelementptr inbounds nuw i8, ptr %0, i64 24
  %4 = load ptr, ptr %3, align 8, !tbaa !33
  %.not = icmp eq ptr %4, null
  br i1 %.not, label %8, label %5

5:                                                ; preds = %2
  %6 = getelementptr inbounds nuw i8, ptr %0, i64 8
  %7 = load i32, ptr %6, align 8, !tbaa !37
  %.not16 = icmp eq i32 %7, 0
  br i1 %.not16, label %11, label %8

8:                                                ; preds = %5, %2
  %9 = tail call i32 @i2d_X509_NAME(ptr noundef nonnull %0, ptr noundef null) #8
  %10 = icmp slt i32 %9, 0
  br i1 %10, label %31, label %11

11:                                               ; preds = %8, %5
  %12 = getelementptr inbounds nuw i8, ptr %1, i64 24
  %13 = load ptr, ptr %12, align 8, !tbaa !33
  %.not17 = icmp eq ptr %13, null
  br i1 %.not17, label %17, label %14

14:                                               ; preds = %11
  %15 = getelementptr inbounds nuw i8, ptr %1, i64 8
  %16 = load i32, ptr %15, align 8, !tbaa !37
  %.not18 = icmp eq i32 %16, 0
  br i1 %.not18, label %20, label %17

17:                                               ; preds = %14, %11
  %18 = tail call i32 @i2d_X509_NAME(ptr noundef nonnull %1, ptr noundef null) #8
  %19 = icmp slt i32 %18, 0
  br i1 %19, label %31, label %20

20:                                               ; preds = %17, %14
  %21 = getelementptr inbounds nuw i8, ptr %0, i64 32
  %22 = load i32, ptr %21, align 8, !tbaa !38
  %23 = getelementptr inbounds nuw i8, ptr %1, i64 32
  %24 = load i32, ptr %23, align 8, !tbaa !38
  %25 = sub nsw i32 %22, %24
  %.not19 = icmp eq i32 %25, 0
  br i1 %.not19, label %26, label %31

26:                                               ; preds = %20
  %27 = load ptr, ptr %3, align 8, !tbaa !33
  %28 = load ptr, ptr %12, align 8, !tbaa !33
  %29 = sext i32 %22 to i64
  %30 = tail call i32 @memcmp(ptr noundef %27, ptr noundef %28, i64 noundef %29) #9
  br label %31

31:                                               ; preds = %20, %17, %8, %26
  %.0 = phi i32 [ %30, %26 ], [ -2, %8 ], [ -2, %17 ], [ %25, %20 ]
  ret i32 %.0
}